     1 00000000                                 ; AYing.OS-ipl
     2 00000000                                 ; TAB=4
     3 00000000                                 
     4  = 0000000A                              		CYLS	EQU		10				; 相当于C语言的#define
     5                                          		ORG		0x7c00			
     6 00007C00                                 
     7 00007C00                                 
     8 00007C00                                 
     9 00007C00 EB 4C                           		JMP		entry
    10 00007C02 90                              		DB		0x90
    11 00007C03 41 59 69 6E 67 2E 4F 53         		DB		"AYing.OS"			;这里必须要8个字节	
    12 00007C0B 0200                            		DW		512				
    13 00007C0D 01                              		DB		1				
    14 00007C0E 0001                            		DW		1				
    15 00007C10 02                              		DB		2				
    16 00007C11 00E0                            		DW		224				
    17 00007C13 0B40                            		DW		2880			
    18 00007C15 F0                              		DB		0xf0			
    19 00007C16 0009                            		DW		9				
    20 00007C18 0012                            		DW		18				
    21 00007C1A 0002                            		DW		2				
    22 00007C1C 00000000                        		DD		0				
    23 00007C20 00000B40                        		DD		2880			
    24 00007C24 00 00 29                        		DB		0,0,0x29		
    25 00007C27 FFFFFFFF                        		DD		0xffffffff		
    26 00007C2B 41 59 69 6E 67 2E 4F 53 20      		DB		"AYing.OS "	
    27 00007C34 46 41 54 31 32 20 20 20         		DB		"FAT12   "		
    28 00007C3C 00 00 00 00 00 00 00 00 00 00   		RESB	18				
       00007C46 00 00 00 00 00 00 00 00 
    29 00007C4E                                 
    30 00007C4E                                 
    31 00007C4E                                 
    32 00007C4E                                 entry:
    33 00007C4E B8 0000                         		MOV		AX,0			
    34 00007C51 8E D0                           		MOV		SS,AX
    35 00007C53 BC 7C00                         		MOV		SP,0x7c00
    36 00007C56 8E D8                           		MOV		DS,AX				;DS:数据段寄存器	这里的实际的意思是  MOV DS,[DS:AX];一般预先给DS赋值0
    37 00007C58                                 
    38 00007C58                                 
    39 00007C58                                 ;下面这里就是一个整个读写磁盘的函数(C0-H0-S1  柱面0，磁头0，扇区1的缩写)
    40 00007C58 B8 0820                         		MOV		AX,0x0820			;累加寄存器 相当于AX=0x0820
    41 00007C5B 8E C0                           		MOV		ES,AX				;ES附加段寄存器
    42 00007C5D B5 00                           		MOV		CH,0				;柱面号(这里是0)&0xff		
    43 00007C5F B6 00                           		MOV		DH,0				;磁头号	
    44 00007C61 B1 02                           		MOV		CL,2				;扇区号(这里是2---0到5位)|(柱面号&0x300)>>2		
    45 00007C63                                 readloop:
    46 00007C63 BE 0000                         		MOV		SI,0			
    47 00007C66                                 retry:
    48 00007C66 B4 02                           		MOV		AH,0x02				;AH = 0x02读盘;AH=0x03写盘;0x04校验;0xc寻道；	
    49 00007C68 B0 01                           		MOV		AL,1				;1个扇区(等于处理对象的扇区数---只能同处理连续的扇区)		
    50 00007C6A BB 0000                         		MOV		BX,0
    51 00007C6D B2 00                           		MOV		DL,0x00				;驱动器号	
    52 00007C6F CD 13                           		INT		0x13				;调用磁盘BIOS
    53 00007C71 73 10                           		JNC		next					;JNC : 跳转指令,如果进位标志是0的话，就跳转			
    54 00007C73 83 C6 01                        		ADD		SI,1			
    55 00007C76 83 FE 05                        		CMP		SI,5			
    56 00007C79 73 32                           		JAE		error				;JAE：大于等于0的时候跳转			
    57 00007C7B B4 00                           		MOV		AH,0x00
    58 00007C7D B2 00                           		MOV		DL,0x00			
    59 00007C7F CD 13                           		INT		0x13			
    60 00007C81 EB E3                           		JMP		retry
    61 00007C83                                 next:
    62 00007C83 8C C0                           		MOV		AX,ES			
    63 00007C85 05 0020                         		ADD		AX,0x0020
    64 00007C88 8E C0                           		MOV		ES,AX				; 因为没有ADD ES,0x020 指令，所以这里绕个弯
    65 00007C8A 80 C1 01                        		ADD		CL,1				; CL+1 下一个扇区
    66 00007C8D 80 F9 12                        		CMP		CL,18				; CL与18比^
    67 00007C90 76 D1                           		JBE		readloop			; CL <= 18 则跳转到readloop
    68 00007C92 B1 01                           		MOV		CL,1	
    69 00007C94 80 C6 01                        		ADD		DH,1	
    70 00007C97 80 FE 02                        		CMP		DH,2	
    71 00007C9A 72 C7                           		JB		readloop			; DH < 2 则跳转到readloop
    72 00007C9C B6 00                           		MOV		DH,0	
    73 00007C9E 80 C5 01                        		ADD		CH,1	
    74 00007CA1 80 FD 0A                        		CMP		CH,CYLS	
    75 00007CA4 72 BD                           		JB		readloop			; CH < CYLS 则跳转到readloop  JB：如果小于的话就跳转
    76 00007CA6                                 
    77 00007CA6                                 
    78 00007CA6 88 2E 0FF0                      		MOV		[0x0ff0],CH		; IPLがどこまでiんだのかをメモ
    79 00007CAA E9 4553                         		JMP		0xc200
    80 00007CAD                                 
    81 00007CAD                                 error:
    82 00007CAD BE 7CC5                         		MOV		SI,msg
    83 00007CB0                                 putloop:
    84 00007CB0 8A 04                           		MOV		AL,[SI]
    85 00007CB2 83 C6 01                        		ADD		SI,1			
    86 00007CB5 3C 00                           		CMP		AL,0
    87 00007CB7 74 09                           		JE		fin
    88 00007CB9 B4 0E                           		MOV		AH,0x0e			
    89 00007CBB BB 000F                         		MOV		BX,15			
    90 00007CBE CD 10                           		INT		0x10			
    91 00007CC0 EB EE                           		JMP		putloop
    92 00007CC2                                 fin:
    93 00007CC2 F4                              		HLT						; 何かあるまでCPUを停止させる
    94 00007CC3 EB FD                           		JMP		fin				; o限ル`プ
    95 00007CC5                                 msg:
    96 00007CC5 0A 0A                           		DB		0x0a, 0x0a		
    97 00007CC7 6C 6F 61 64 20 65 72 72 6F 72   		DB		"load error"
    98 00007CD1 0A                              		DB		0x0a			
    99 00007CD2 00                              		DB		0
   100 00007CD3                                 
   101 00007CD3 00 00 00 00 00 00 00 00 00 00   		RESB	0x7dfe-$		
       00007CDD 00 00 00 00 00 00 00 00 00 00 
       00007CE7 00 00 00 00 00 00 00 00 00 00 
       00007CF1 00 00 00 00 00 00 00 00 00 00 
       00007CFB 00 00 00 00 00 00 00 00 00 00 
       00007D05 00 00 00 00 00 00 00 00 00 00 
       00007D0F 00 00 00 00 00 00 00 00 00 00 
       00007D19 00 00 00 00 00 00 00 00 00 00 
       00007D23 00 00 00 00 00 00 00 00 00 00 
       00007D2D 00 00 00 00 00 00 00 00 00 00 
       00007D37 00 00 00 00 00 00 00 00 00 00 
       00007D41 00 00 00 00 00 00 00 00 00 00 
       00007D4B 00 00 00 00 00 00 00 00 00 00 
       00007D55 00 00 00 00 00 00 00 00 00 00 
       00007D5F 00 00 00 00 00 00 00 00 00 00 
       00007D69 00 00 00 00 00 00 00 00 00 00 
       00007D73 00 00 00 00 00 00 00 00 00 00 
       00007D7D 00 00 00 00 00 00 00 00 00 00 
       00007D87 00 00 00 00 00 00 00 00 00 00 
       00007D91 00 00 00 00 00 00 00 00 00 00 
       00007D9B 00 00 00 00 00 00 00 00 00 00 
       00007DA5 00 00 00 00 00 00 00 00 00 00 
       00007DAF 00 00 00 00 00 00 00 00 00 00 
       00007DB9 00 00 00 00 00 00 00 00 00 00 
       00007DC3 00 00 00 00 00 00 00 00 00 00 
       00007DCD 00 00 00 00 00 00 00 00 00 00 
       00007DD7 00 00 00 00 00 00 00 00 00 00 
       00007DE1 00 00 00 00 00 00 00 00 00 00 
       00007DEB 00 00 00 00 00 00 00 00 00 00 
       00007DF5 00 00 00 00 00 00 00 00 00 
   102 00007DFE                                 
   103 00007DFE 55 AA                           		DB		0x55, 0xaa
